; Function Attrs: mustprogress uwtable
define noundef range(i32 -1, 1) i32 @_ZN3zmq19hello_msg_session_t8pull_msgEPNS_5msg_tE(ptr noundef nonnull align 8 captures(none) dereferenceable(1632) %0, ptr noundef %1) unnamed_addr #0 align 2 {
  %3 = getelementptr inbounds nuw i8, ptr %0, i64 1624
  %4 = load i8, ptr %3, align 8, !tbaa !131, !range !47, !noundef !48
  %5 = trunc nuw i8 %4 to i1
  br i1 %5, label %6, label %23

6:                                                ; preds = %2
  store i8 0, ptr %3, align 8, !tbaa !131
  %7 = getelementptr inbounds nuw i8, ptr %0, i64 1232
  %8 = load ptr, ptr %7, align 8, !tbaa !50
  %9 = getelementptr inbounds nuw i8, ptr %0, i64 1240
  %10 = load ptr, ptr %9, align 8, !tbaa !49
  %11 = ptrtoint ptr %10 to i64
  %12 = ptrtoint ptr %8 to i64
  %13 = sub i64 %11, %12
  %14 = tail call noundef i32 @_ZN3zmq5msg_t11init_bufferEPKvm(ptr noundef nonnull align 8 dereferenceable(64) %1, ptr noundef nonnull %8, i64 noundef %13)
  %.not = icmp eq i32 %14, 0
  br i1 %.not, label %_ZN3zmq14session_base_t8pull_msgEPNS_5msg_tE.exit, label %15, !prof !102

15:                                               ; preds = %6
  %16 = tail call ptr @__errno_location() #26
  %17 = load i32, ptr %16, align 4, !tbaa !51
  %18 = tail call ptr @strerror(i32 noundef %17) #29
  %19 = load ptr, ptr @stderr, align 8, !tbaa !52
  %20 = tail call i32 (ptr, ptr, ...) @fprintf(ptr noundef %19, ptr noundef nonnull @.str.8, ptr noundef %18, ptr noundef nonnull @.str.1, i32 noundef 776) #27
  %21 = load ptr, ptr @stderr, align 8, !tbaa !52
  %22 = tail call i32 @fflush(ptr noundef %21)
  tail call void @_ZN3zmq9zmq_abortEPKc(ptr noundef %18)
  br label %_ZN3zmq14session_base_t8pull_msgEPNS_5msg_tE.exit

23:                                               ; preds = %2
  %24 = getelementptr inbounds nuw i8, ptr %0, i64 1480
  %25 = load ptr, ptr %24, align 8, !tbaa !101
  %.not.i = icmp eq ptr %25, null
  br i1 %.not.i, label %28, label %26

26:                                               ; preds = %23
  %27 = tail call noundef zeroext i1 @_ZN3zmq6pipe_t4readEPNS_5msg_tE(ptr noundef nonnull align 8 dereferenceable(328) %25, ptr noundef %1)
  br i1 %27, label %30, label %28

28:                                               ; preds = %26, %23
  %29 = tail call ptr @__errno_location() #26
  store i32 11, ptr %29, align 4, !tbaa !51
  br label %_ZN3zmq14session_base_t8pull_msgEPNS_5msg_tE.exit

30:                                               ; preds = %26
  %31 = tail call noundef zeroext i8 @_ZNK3zmq5msg_t5flagsEv(ptr noundef nonnull align 8 dereferenceable(64) %1)
  %32 = and i8 %31, 1
  %33 = getelementptr inbounds nuw i8, ptr %0, i64 1544
  store i8 %32, ptr %33, align 8, !tbaa !89
  br label %_ZN3zmq14session_base_t8pull_msgEPNS_5msg_tE.exit

_ZN3zmq14session_base_t8pull_msgEPNS_5msg_tE.exit: ; preds = %30, %28, %6, %15
  %.0 = phi i32 [ 0, %15 ], [ 0, %6 ], [ 0, %30 ], [ -1, %28 ]
  ret i32 %.0
}